; ModuleID = '52/3143.c'
source_filename = "52/3143.c"
target datalayout = "e-m:e-p270:32:32-p271:32:32-p272:64:64-i64:64-f80:128-n8:16:32:64-S128"
target triple = "x86_64-pc-linux-gnu"

@.str = private unnamed_addr constant [5 x i8] c"%d%d\00", align 1
@.str.1 = private unnamed_addr constant [3 x i8] c"%d\00", align 1
@.str.2 = private unnamed_addr constant [4 x i8] c" %d\00", align 1

; Function Attrs: noinline nounwind uwtable
define dso_local i32 @main() #0 {
  %1 = alloca i32, align 4
  %2 = alloca i32, align 4
  %3 = alloca i32, align 4
  %4 = alloca i32, align 4
  %5 = alloca [220 x i32], align 16
  %6 = alloca i32, align 4
  store i32 0, i32* %1, align 4
  %7 = call i32 (i8*, ...) @__isoc99_scanf(i8* getelementptr inbounds ([5 x i8], [5 x i8]* @.str, i64 0, i64 0), i32* %2, i32* %3)
  store i32 0, i32* %4, align 4
  br label %8

8:                                                ; preds = %17, %0
  %9 = load i32, i32* %4, align 4
  %10 = load i32, i32* %2, align 4
  %11 = icmp slt i32 %9, %10
  br i1 %11, label %12, label %20

12:                                               ; preds = %8
  %13 = load i32, i32* %4, align 4
  %14 = sext i32 %13 to i64
  %15 = getelementptr inbounds [220 x i32], [220 x i32]* %5, i64 0, i64 %14
  %16 = call i32 (i8*, ...) @__isoc99_scanf(i8* getelementptr inbounds ([3 x i8], [3 x i8]* @.str.1, i64 0, i64 0), i32* %15)
  br label %17

17:                                               ; preds = %12
  %18 = load i32, i32* %4, align 4
  %19 = add nsw i32 %18, 1
  store i32 %19, i32* %4, align 4
  br label %8

20:                                               ; preds = %8
  %21 = load i32, i32* %2, align 4
  %22 = sub nsw i32 %21, 1
  store i32 %22, i32* %4, align 4
  br label %23

23:                                               ; preds = %36, %20
  %24 = load i32, i32* %4, align 4
  %25 = icmp sge i32 %24, 0
  br i1 %25, label %26, label %39

26:                                               ; preds = %23
  %27 = load i32, i32* %4, align 4
  %28 = sext i32 %27 to i64
  %29 = getelementptr inbounds [220 x i32], [220 x i32]* %5, i64 0, i64 %28
  %30 = load i32, i32* %29, align 4
  %31 = load i32, i32* %4, align 4
  %32 = load i32, i32* %3, align 4
  %33 = add nsw i32 %31, %32
  %34 = sext i32 %33 to i64
  %35 = getelementptr inbounds [220 x i32], [220 x i32]* %5, i64 0, i64 %34
  store i32 %30, i32* %35, align 4
  br label %36

36:                                               ; preds = %26
  %37 = load i32, i32* %4, align 4
  %38 = add nsw i32 %37, -1
  store i32 %38, i32* %4, align 4
  br label %23

39:                                               ; preds = %23
  store i32 0, i32* %4, align 4
  br label %40

40:                                               ; preds = %54, %39
  %41 = load i32, i32* %4, align 4
  %42 = load i32, i32* %3, align 4
  %43 = icmp slt i32 %41, %42
  br i1 %43, label %44, label %57

44:                                               ; preds = %40
  %45 = load i32, i32* %4, align 4
  %46 = load i32, i32* %2, align 4
  %47 = add nsw i32 %45, %46
  %48 = sext i32 %47 to i64
  %49 = getelementptr inbounds [220 x i32], [220 x i32]* %5, i64 0, i64 %48
  %50 = load i32, i32* %49, align 4
  %51 = load i32, i32* %4, align 4
  %52 = sext i32 %51 to i64
  %53 = getelementptr inbounds [220 x i32], [220 x i32]* %5, i64 0, i64 %52
  store i32 %50, i32* %53, align 4
  br label %54

54:                                               ; preds = %44
  %55 = load i32, i32* %4, align 4
  %56 = add nsw i32 %55, 1
  store i32 %56, i32* %4, align 4
  br label %40

57:                                               ; preds = %40
  store i32 0, i32* %6, align 4
  store i32 0, i32* %4, align 4
  br label %58

58:                                               ; preds = %81, %57
  %59 = load i32, i32* %4, align 4
  %60 = load i32, i32* %2, align 4
  %61 = icmp slt i32 %59, %60
  br i1 %61, label %62, label %84

62:                                               ; preds = %58
  %63 = load i32, i32* %6, align 4
  %64 = icmp eq i32 %63, 0
  br i1 %64, label %65, label %71

65:                                               ; preds = %62
  %66 = load i32, i32* %4, align 4
  %67 = sext i32 %66 to i64
  %68 = getelementptr inbounds [220 x i32], [220 x i32]* %5, i64 0, i64 %67
  %69 = load i32, i32* %68, align 4
  %70 = call i32 (i8*, ...) @printf(i8* getelementptr inbounds ([3 x i8], [3 x i8]* @.str.1, i64 0, i64 0), i32 %69)
  store i32 1, i32* %6, align 4
  br label %81

71:                                               ; preds = %62
  %72 = load i32, i32* %6, align 4
  %73 = icmp eq i32 %72, 1
  br i1 %73, label %74, label %80

74:                                               ; preds = %71
  %75 = load i32, i32* %4, align 4
  %76 = sext i32 %75 to i64
  %77 = getelementptr inbounds [220 x i32], [220 x i32]* %5, i64 0, i64 %76
  %78 = load i32, i32* %77, align 4
  %79 = call i32 (i8*, ...) @printf(i8* getelementptr inbounds ([4 x i8], [4 x i8]* @.str.2, i64 0, i64 0), i32 %78)
  br label %80

80:                                               ; preds = %74, %71
  br label %81

81:                                               ; preds = %80, %65
  %82 = load i32, i32* %4, align 4
  %83 = add nsw i32 %82, 1
  store i32 %83, i32* %4, align 4
  br label %58

84:                                               ; preds = %58
  ret i32 0
}

declare dso_local i32 @__isoc99_scanf(i8*, ...) #1

declare dso_local i32 @printf(i8*, ...) #1


!llvm.module.flags = !{!0}
!llvm.ident = !{!1}

!0 = !{i32 1, !"wchar_size", i32 4}
!1 = !{!"clang version 10.0.0-4ubuntu1 "}
